target datalayout = "e-m:e-p270:32:32-p271:32:32-p272:64:64-i64:64-i128:128-f80:128-n8:16:32:64-S128"
target triple = "x86_64-pc-linux-gnu"

%"class.cv::Mat" = type { i32, i32, i32, i32, ptr, ptr, ptr, ptr, ptr, ptr, %"struct.cv::MatSize", %"struct.cv::MatStep" }
%"struct.cv::MatSize" = type { ptr }
%"struct.cv::MatStep" = type { ptr, [2 x i64] }
%"class.std::vector.30" = type { %"struct.std::_Vector_base.31" }
%"struct.std::_Vector_base.31" = type { %"struct.std::_Vector_base<float, std::allocator<float>>::_Vector_impl" }
%"struct.std::_Vector_base<float, std::allocator<float>>::_Vector_impl" = type { %"struct.std::_Vector_base<float, std::allocator<float>>::_Vector_impl_data" }
%"struct.std::_Vector_base<float, std::allocator<float>>::_Vector_impl_data" = type { ptr, ptr, ptr }
%"class.cv::line_descriptor::BinaryDescriptor::EDLineDetector" = type { %"class.cv::Mat", %"class.cv::Mat", %"class.cv::Mat", %"struct.cv::line_descriptor::BinaryDescriptor::LineChains", %"class.std::vector.20", %"class.std::vector.25", %"class.std::vector.30", %"class.std::vector.30", i32, i32, double, i16, i8, i32, i32, i8, i32, float, ptr, ptr, ptr, ptr, ptr, ptr, ptr, ptr, %"class.cv::Mat", %"class.cv::Mat", %"class.cv::Mat", double, %"class.cv::Mat_", %"class.cv::Mat_", %"class.cv::Mat_", %"class.cv::Mat_", %"class.cv::Mat_", %"class.cv::Mat_" }
%"struct.cv::line_descriptor::BinaryDescriptor::LineChains" = type <{ %"class.std::vector.15", %"class.std::vector.15", %"class.std::vector.15", i32, [4 x i8] }>
%"class.std::vector.15" = type { %"struct.std::_Vector_base.16" }
%"struct.std::_Vector_base.16" = type { %"struct.std::_Vector_base<unsigned int, std::allocator<unsigned int>>::_Vector_impl" }
%"struct.std::_Vector_base<unsigned int, std::allocator<unsigned int>>::_Vector_impl" = type { %"struct.std::_Vector_base<unsigned int, std::allocator<unsigned int>>::_Vector_impl_data" }
%"struct.std::_Vector_base<unsigned int, std::allocator<unsigned int>>::_Vector_impl_data" = type { ptr, ptr, ptr }
%"class.std::vector.20" = type { %"struct.std::_Vector_base.21" }
%"struct.std::_Vector_base.21" = type { %"struct.std::_Vector_base<std::vector<double>, std::allocator<std::vector<double>>>::_Vector_impl" }
%"struct.std::_Vector_base<std::vector<double>, std::allocator<std::vector<double>>>::_Vector_impl" = type { %"struct.std::_Vector_base<std::vector<double>, std::allocator<std::vector<double>>>::_Vector_impl_data" }
%"struct.std::_Vector_base<std::vector<double>, std::allocator<std::vector<double>>>::_Vector_impl_data" = type { ptr, ptr, ptr }
%"class.std::vector.25" = type { %"struct.std::_Vector_base.26" }
%"struct.std::_Vector_base.26" = type { %"struct.std::_Vector_base<std::vector<float>, std::allocator<std::vector<float>>>::_Vector_impl" }
%"struct.std::_Vector_base<std::vector<float>, std::allocator<std::vector<float>>>::_Vector_impl" = type { %"struct.std::_Vector_base<std::vector<float>, std::allocator<std::vector<float>>>::_Vector_impl_data" }
%"struct.std::_Vector_base<std::vector<float>, std::allocator<std::vector<float>>>::_Vector_impl_data" = type { ptr, ptr, ptr }
%"class.cv::Mat_" = type { %"class.cv::Mat" }
%"class.cv::Mat_.83" = type { %"class.cv::Mat" }

; Function Attrs: mustprogress nounwind uwtable
define linkonce_odr hidden noundef ptr @_ZN2cv4Mat_IfEixEi(ptr noundef nonnull align 8 dereferenceable(96) %0, i32 noundef %1) #4 comdat align 2 {
  %3 = alloca ptr, align 8
  %4 = alloca i32, align 4
  store ptr %0, ptr %3, align 8
  store i32 %1, ptr %4, align 4
  %5 = load ptr, ptr %3, align 8
  %6 = getelementptr inbounds %"class.cv::Mat", ptr %5, i32 0, i32 4
  %7 = load ptr, ptr %6, align 8
  %8 = load i32, ptr %4, align 4
  %9 = sext i32 %8 to i64
  %10 = getelementptr inbounds %"class.cv::Mat", ptr %5, i32 0, i32 11
  %11 = getelementptr inbounds %"struct.cv::MatStep", ptr %10, i32 0, i32 0
  %12 = load ptr, ptr %11, align 8
  %13 = getelementptr inbounds i64, ptr %12, i64 0
  %14 = load i64, ptr %13, align 8
  %15 = mul i64 %9, %14
  %16 = getelementptr inbounds i8, ptr %7, i64 %15
  ret ptr %16
}

; Function Attrs: mustprogress nounwind uwtable
define linkonce_odr hidden void @_ZN2cv4Mat_IiED2Ev(ptr noundef nonnull align 8 dereferenceable(96) %0) unnamed_addr #4 comdat align 2 {
  %2 = alloca ptr, align 8
  store ptr %0, ptr %2, align 8
  %3 = load ptr, ptr %2, align 8
  call void @_ZN2cv3MatD2Ev(ptr noundef nonnull align 8 dereferenceable(96) %3) #3
  ret void
}

; Function Attrs: mustprogress uwtable
define linkonce_odr hidden void @_ZN2cv4Mat_IiEC2Eii(ptr noundef nonnull align 8 dereferenceable(96) %0, i32 noundef %1, i32 noundef %2) unnamed_addr #5 comdat align 2 {
  %4 = alloca ptr, align 8
  %5 = alloca i32, align 4
  %6 = alloca i32, align 4
  store ptr %0, ptr %4, align 8
  store i32 %1, ptr %5, align 4
  store i32 %2, ptr %6, align 4
  %7 = load ptr, ptr %4, align 8
  %8 = load i32, ptr %5, align 4
  %9 = load i32, ptr %6, align 4
  call void @_ZN2cv3MatC2Eiii(ptr noundef nonnull align 8 dereferenceable(96) %7, i32 noundef %8, i32 noundef %9, i32 noundef 4)
  ret void
}

; Function Attrs: mustprogress uwtable
define void @_ZN2cv15line_descriptor16BinaryDescriptor14EDLineDetector11InitEDLine_Ev(ptr noundef nonnull align 8 dereferenceable(1440) %0) #5 align 2 personality ptr @__gxx_personality_v0 {
  %2 = alloca ptr, align 8
  %3 = alloca %"class.cv::Mat_.83", align 8
  %4 = alloca ptr, align 8
  %5 = alloca i32, align 4
  %6 = alloca %"class.cv::Mat_.83", align 8
  %7 = alloca %"class.cv::Mat_.83", align 8
  %8 = alloca %"class.cv::Mat_.83", align 8
  %9 = alloca %"class.cv::Mat_.83", align 8
  %10 = alloca %"class.cv::Mat_.83", align 8
  %11 = alloca i32, align 4
  store ptr %0, ptr %2, align 8
  %12 = load ptr, ptr %2, align 8
  %13 = getelementptr inbounds %"class.cv::line_descriptor::BinaryDescriptor::EDLineDetector", ptr %12, i32 0, i32 15
  store i8 1, ptr %13, align 4
  call void @_ZN2cv4Mat_IiEC2Eii(ptr noundef nonnull align 8 dereferenceable(96) %3, i32 noundef 2, i32 noundef 2)
  %14 = getelementptr inbounds %"class.cv::line_descriptor::BinaryDescriptor::EDLineDetector", ptr %12, i32 0, i32 30
  %15 = invoke noundef nonnull align 8 dereferenceable(96) ptr @_ZN2cv4Mat_IfEaSEONS_3MatE(ptr noundef nonnull align 8 dereferenceable(96) %14, ptr noundef nonnull align 8 dereferenceable(96) %3)
          to label %16 unwind label %50

16:                                               ; preds = %1
  call void @_ZN2cv4Mat_IiED2Ev(ptr noundef nonnull align 8 dereferenceable(96) %3) #3
  call void @_ZN2cv4Mat_IiEC2Eii(ptr noundef nonnull align 8 dereferenceable(96) %6, i32 noundef 1, i32 noundef 2)
  %17 = getelementptr inbounds %"class.cv::line_descriptor::BinaryDescriptor::EDLineDetector", ptr %12, i32 0, i32 31
  %18 = invoke noundef nonnull align 8 dereferenceable(96) ptr @_ZN2cv4Mat_IfEaSEONS_3MatE(ptr noundef nonnull align 8 dereferenceable(96) %17, ptr noundef nonnull align 8 dereferenceable(96) %6)
          to label %19 unwind label %54

19:                                               ; preds = %16
  call void @_ZN2cv4Mat_IiED2Ev(ptr noundef nonnull align 8 dereferenceable(96) %6) #3
  call void @_ZN2cv4Mat_IiEC2Eii(ptr noundef nonnull align 8 dereferenceable(96) %7, i32 noundef 2, i32 noundef 2)
  %20 = getelementptr inbounds %"class.cv::line_descriptor::BinaryDescriptor::EDLineDetector", ptr %12, i32 0, i32 34
  %21 = invoke noundef nonnull align 8 dereferenceable(96) ptr @_ZN2cv4Mat_IfEaSEONS_3MatE(ptr noundef nonnull align 8 dereferenceable(96) %20, ptr noundef nonnull align 8 dereferenceable(96) %7)
          to label %22 unwind label %58

22:                                               ; preds = %19
  call void @_ZN2cv4Mat_IiED2Ev(ptr noundef nonnull align 8 dereferenceable(96) %7) #3
  call void @_ZN2cv4Mat_IiEC2Eii(ptr noundef nonnull align 8 dereferenceable(96) %8, i32 noundef 1, i32 noundef 2)
  %23 = getelementptr inbounds %"class.cv::line_descriptor::BinaryDescriptor::EDLineDetector", ptr %12, i32 0, i32 35
  %24 = invoke noundef nonnull align 8 dereferenceable(96) ptr @_ZN2cv4Mat_IfEaSEONS_3MatE(ptr noundef nonnull align 8 dereferenceable(96) %23, ptr noundef nonnull align 8 dereferenceable(96) %8)
          to label %25 unwind label %62

25:                                               ; preds = %22
  call void @_ZN2cv4Mat_IiED2Ev(ptr noundef nonnull align 8 dereferenceable(96) %8) #3
  %26 = getelementptr inbounds %"class.cv::line_descriptor::BinaryDescriptor::EDLineDetector", ptr %12, i32 0, i32 14
  %27 = load i32, ptr %26, align 8
  call void @_ZN2cv4Mat_IiEC2Eii(ptr noundef nonnull align 8 dereferenceable(96) %9, i32 noundef 2, i32 noundef %27)
  %28 = getelementptr inbounds %"class.cv::line_descriptor::BinaryDescriptor::EDLineDetector", ptr %12, i32 0, i32 32
  %29 = invoke noundef nonnull align 8 dereferenceable(96) ptr @_ZN2cv4Mat_IfEaSEONS_3MatE(ptr noundef nonnull align 8 dereferenceable(96) %28, ptr noundef nonnull align 8 dereferenceable(96) %9)
          to label %30 unwind label %66

30:                                               ; preds = %25
  call void @_ZN2cv4Mat_IiED2Ev(ptr noundef nonnull align 8 dereferenceable(96) %9) #3
  %31 = getelementptr inbounds %"class.cv::line_descriptor::BinaryDescriptor::EDLineDetector", ptr %12, i32 0, i32 14
  %32 = load i32, ptr %31, align 8
  call void @_ZN2cv4Mat_IiEC2Eii(ptr noundef nonnull align 8 dereferenceable(96) %10, i32 noundef 1, i32 noundef %32)
  %33 = getelementptr inbounds %"class.cv::line_descriptor::BinaryDescriptor::EDLineDetector", ptr %12, i32 0, i32 33
  %34 = invoke noundef nonnull align 8 dereferenceable(96) ptr @_ZN2cv4Mat_IfEaSEONS_3MatE(ptr noundef nonnull align 8 dereferenceable(96) %33, ptr noundef nonnull align 8 dereferenceable(96) %10)
          to label %35 unwind label %70

35:                                               ; preds = %30
  call void @_ZN2cv4Mat_IiED2Ev(ptr noundef nonnull align 8 dereferenceable(96) %10) #3
  store i32 0, ptr %11, align 4
  br label %36

36:                                               ; preds = %47, %35
  %37 = load i32, ptr %11, align 4
  %38 = getelementptr inbounds %"class.cv::line_descriptor::BinaryDescriptor::EDLineDetector", ptr %12, i32 0, i32 14
  %39 = load i32, ptr %38, align 8
  %40 = icmp slt i32 %37, %39
  br i1 %40, label %41, label %74

41:                                               ; preds = %36
  %42 = getelementptr inbounds %"class.cv::line_descriptor::BinaryDescriptor::EDLineDetector", ptr %12, i32 0, i32 32
  %43 = call noundef ptr @_ZN2cv4Mat_IfEixEi(ptr noundef nonnull align 8 dereferenceable(96) %42, i32 noundef 1)
  %44 = load i32, ptr %11, align 4
  %45 = sext i32 %44 to i64
  %46 = getelementptr inbounds float, ptr %43, i64 %45
  store float 1.000000e+00, ptr %46, align 4
  br label %47

47:                                               ; preds = %41
  %48 = load i32, ptr %11, align 4
  %49 = add nsw i32 %48, 1
  store i32 %49, ptr %11, align 4
  br label %36, !llvm.loop !47

50:                                               ; preds = %1
  %51 = landingpad { ptr, i32 }
          cleanup
  %52 = extractvalue { ptr, i32 } %51, 0
  store ptr %52, ptr %4, align 8
  %53 = extractvalue { ptr, i32 } %51, 1
  store i32 %53, ptr %5, align 4
  call void @_ZN2cv4Mat_IiED2Ev(ptr noundef nonnull align 8 dereferenceable(96) %3) #3
  br label %86

54:                                               ; preds = %16
  %55 = landingpad { ptr, i32 }
          cleanup
  %56 = extractvalue { ptr, i32 } %55, 0
  store ptr %56, ptr %4, align 8
  %57 = extractvalue { ptr, i32 } %55, 1
  store i32 %57, ptr %5, align 4
  call void @_ZN2cv4Mat_IiED2Ev(ptr noundef nonnull align 8 dereferenceable(96) %6) #3
  br label %86

58:                                               ; preds = %19
  %59 = landingpad { ptr, i32 }
          cleanup
  %60 = extractvalue { ptr, i32 } %59, 0
  store ptr %60, ptr %4, align 8
  %61 = extractvalue { ptr, i32 } %59, 1
  store i32 %61, ptr %5, align 4
  call void @_ZN2cv4Mat_IiED2Ev(ptr noundef nonnull align 8 dereferenceable(96) %7) #3
  br label %86

62:                                               ; preds = %22
  %63 = landingpad { ptr, i32 }
          cleanup
  %64 = extractvalue { ptr, i32 } %63, 0
  store ptr %64, ptr %4, align 8
  %65 = extractvalue { ptr, i32 } %63, 1
  store i32 %65, ptr %5, align 4
  call void @_ZN2cv4Mat_IiED2Ev(ptr noundef nonnull align 8 dereferenceable(96) %8) #3
  br label %86

66:                                               ; preds = %25
  %67 = landingpad { ptr, i32 }
          cleanup
  %68 = extractvalue { ptr, i32 } %67, 0
  store ptr %68, ptr %4, align 8
  %69 = extractvalue { ptr, i32 } %67, 1
  store i32 %69, ptr %5, align 4
  call void @_ZN2cv4Mat_IiED2Ev(ptr noundef nonnull align 8 dereferenceable(96) %9) #3
  br label %86

70:                                               ; preds = %30
  %71 = landingpad { ptr, i32 }
          cleanup
  %72 = extractvalue { ptr, i32 } %71, 0
  store ptr %72, ptr %4, align 8
  %73 = extractvalue { ptr, i32 } %71, 1
  store i32 %73, ptr %5, align 4
  call void @_ZN2cv4Mat_IiED2Ev(ptr noundef nonnull align 8 dereferenceable(96) %10) #3
  br label %86

74:                                               ; preds = %36
  %75 = getelementptr inbounds %"class.cv::line_descriptor::BinaryDescriptor::EDLineDetector", ptr %12, i32 0, i32 0
  call void @_ZN2cv3Mat6createEiii(ptr noundef nonnull align 8 dereferenceable(96) %75, i32 noundef 1, i32 noundef 1, i32 noundef 3)
  %76 = getelementptr inbounds %"class.cv::line_descriptor::BinaryDescriptor::EDLineDetector", ptr %12, i32 0, i32 1
  call void @_ZN2cv3Mat6createEiii(ptr noundef nonnull align 8 dereferenceable(96) %76, i32 noundef 1, i32 noundef 1, i32 noundef 3)
  %77 = getelementptr inbounds %"class.cv::line_descriptor::BinaryDescriptor::EDLineDetector", ptr %12, i32 0, i32 2
  call void @_ZN2cv3Mat6createEiii(ptr noundef nonnull align 8 dereferenceable(96) %77, i32 noundef 1, i32 noundef 1, i32 noundef 1)
  %78 = getelementptr inbounds %"class.cv::line_descriptor::BinaryDescriptor::EDLineDetector", ptr %12, i32 0, i32 18
  store ptr null, ptr %78, align 8
  %79 = getelementptr inbounds %"class.cv::line_descriptor::BinaryDescriptor::EDLineDetector", ptr %12, i32 0, i32 19
  store ptr null, ptr %79, align 8
  %80 = getelementptr inbounds %"class.cv::line_descriptor::BinaryDescriptor::EDLineDetector", ptr %12, i32 0, i32 20
  store ptr null, ptr %80, align 8
  %81 = getelementptr inbounds %"class.cv::line_descriptor::BinaryDescriptor::EDLineDetector", ptr %12, i32 0, i32 21
  store ptr null, ptr %81, align 8
  %82 = getelementptr inbounds %"class.cv::line_descriptor::BinaryDescriptor::EDLineDetector", ptr %12, i32 0, i32 22
  store ptr null, ptr %82, align 8
  %83 = getelementptr inbounds %"class.cv::line_descriptor::BinaryDescriptor::EDLineDetector", ptr %12, i32 0, i32 23
  store ptr null, ptr %83, align 8
  %84 = getelementptr inbounds %"class.cv::line_descriptor::BinaryDescriptor::EDLineDetector", ptr %12, i32 0, i32 24
  store ptr null, ptr %84, align 8
  %85 = getelementptr inbounds %"class.cv::line_descriptor::BinaryDescriptor::EDLineDetector", ptr %12, i32 0, i32 25
  store ptr null, ptr %85, align 8
  ret void

86:                                               ; preds = %70, %66, %62, %58, %54, %50
  %87 = load ptr, ptr %4, align 8
  %88 = load i32, ptr %5, align 4
  %89 = insertvalue { ptr, i32 } poison, ptr %87, 0
  %90 = insertvalue { ptr, i32 } %89, i32 %88, 1
  resume { ptr, i32 } %90
}