; Function Attrs: mustprogress uwtable
define void @_ZN2cv15line_descriptor16BinaryDescriptor14EDLineDetector11InitEDLine_Ev(ptr noundef nonnull align 8 dereferenceable(1440) %0) local_unnamed_addr #5 align 2 personality ptr @__gxx_personality_v0 {
  %2 = alloca %"class.cv::Mat_.83", align 8
  %3 = alloca %"class.cv::Mat_.83", align 8
  %4 = alloca %"class.cv::Mat_.83", align 8
  %5 = alloca %"class.cv::Mat_.83", align 8
  %6 = alloca %"class.cv::Mat_.83", align 8
  %7 = alloca %"class.cv::Mat_.83", align 8
  %8 = getelementptr inbounds i8, ptr %0, i64 492
  store i8 1, ptr %8, align 4
  call void @_ZN2cv3MatC2Eiii(ptr noundef nonnull align 8 dereferenceable(96) %2, i32 noundef 2, i32 noundef 2, i32 noundef 4)
  %9 = getelementptr inbounds i8, ptr %0, i64 864
  %10 = invoke noundef nonnull align 8 dereferenceable(96) ptr @_ZN2cv4Mat_IfEaSEONS_3MatE(ptr noundef nonnull align 8 dereferenceable(96) %9, ptr noundef nonnull align 8 dereferenceable(96) %2)
          to label %11 unwind label %43

11:                                               ; preds = %1
  call void @_ZN2cv3MatD2Ev(ptr noundef nonnull align 8 dereferenceable(96) %2) #23
  call void @_ZN2cv3MatC2Eiii(ptr noundef nonnull align 8 dereferenceable(96) %3, i32 noundef 1, i32 noundef 2, i32 noundef 4)
  %12 = getelementptr inbounds i8, ptr %0, i64 960
  %13 = invoke noundef nonnull align 8 dereferenceable(96) ptr @_ZN2cv4Mat_IfEaSEONS_3MatE(ptr noundef nonnull align 8 dereferenceable(96) %12, ptr noundef nonnull align 8 dereferenceable(96) %3)
          to label %14 unwind label %45

14:                                               ; preds = %11
  call void @_ZN2cv3MatD2Ev(ptr noundef nonnull align 8 dereferenceable(96) %3) #23
  call void @_ZN2cv3MatC2Eiii(ptr noundef nonnull align 8 dereferenceable(96) %4, i32 noundef 2, i32 noundef 2, i32 noundef 4)
  %15 = getelementptr inbounds i8, ptr %0, i64 1248
  %16 = invoke noundef nonnull align 8 dereferenceable(96) ptr @_ZN2cv4Mat_IfEaSEONS_3MatE(ptr noundef nonnull align 8 dereferenceable(96) %15, ptr noundef nonnull align 8 dereferenceable(96) %4)
          to label %17 unwind label %47

17:                                               ; preds = %14
  call void @_ZN2cv3MatD2Ev(ptr noundef nonnull align 8 dereferenceable(96) %4) #23
  call void @_ZN2cv3MatC2Eiii(ptr noundef nonnull align 8 dereferenceable(96) %5, i32 noundef 1, i32 noundef 2, i32 noundef 4)
  %18 = getelementptr inbounds i8, ptr %0, i64 1344
  %19 = invoke noundef nonnull align 8 dereferenceable(96) ptr @_ZN2cv4Mat_IfEaSEONS_3MatE(ptr noundef nonnull align 8 dereferenceable(96) %18, ptr noundef nonnull align 8 dereferenceable(96) %5)
          to label %20 unwind label %49

20:                                               ; preds = %17
  call void @_ZN2cv3MatD2Ev(ptr noundef nonnull align 8 dereferenceable(96) %5) #23
  %21 = getelementptr inbounds i8, ptr %0, i64 488
  %22 = load i32, ptr %21, align 8
  call void @_ZN2cv3MatC2Eiii(ptr noundef nonnull align 8 dereferenceable(96) %6, i32 noundef 2, i32 noundef %22, i32 noundef 4)
  %23 = getelementptr inbounds i8, ptr %0, i64 1056
  %24 = invoke noundef nonnull align 8 dereferenceable(96) ptr @_ZN2cv4Mat_IfEaSEONS_3MatE(ptr noundef nonnull align 8 dereferenceable(96) %23, ptr noundef nonnull align 8 dereferenceable(96) %6)
          to label %25 unwind label %51

25:                                               ; preds = %20
  call void @_ZN2cv3MatD2Ev(ptr noundef nonnull align 8 dereferenceable(96) %6) #23
  %26 = load i32, ptr %21, align 8
  call void @_ZN2cv3MatC2Eiii(ptr noundef nonnull align 8 dereferenceable(96) %7, i32 noundef 1, i32 noundef %26, i32 noundef 4)
  %27 = getelementptr inbounds i8, ptr %0, i64 1152
  %28 = invoke noundef nonnull align 8 dereferenceable(96) ptr @_ZN2cv4Mat_IfEaSEONS_3MatE(ptr noundef nonnull align 8 dereferenceable(96) %27, ptr noundef nonnull align 8 dereferenceable(96) %7)
          to label %29 unwind label %53

29:                                               ; preds = %25
  call void @_ZN2cv3MatD2Ev(ptr noundef nonnull align 8 dereferenceable(96) %7) #23
  %30 = load i32, ptr %21, align 8
  %31 = icmp sgt i32 %30, 0
  br i1 %31, label %.lr.ph, label %._crit_edge

.lr.ph:                                           ; preds = %29
  %32 = getelementptr inbounds i8, ptr %0, i64 1072
  %33 = getelementptr inbounds i8, ptr %0, i64 1128
  br label %34

34:                                               ; preds = %.lr.ph, %34
  %indvars.iv = phi i64 [ 0, %.lr.ph ], [ %indvars.iv.next, %34 ]
  %35 = load ptr, ptr %32, align 8
  %36 = load ptr, ptr %33, align 8
  %37 = load i64, ptr %36, align 8
  %38 = getelementptr inbounds i8, ptr %35, i64 %37
  %39 = getelementptr inbounds float, ptr %38, i64 %indvars.iv
  store float 1.000000e+00, ptr %39, align 4
  %indvars.iv.next = add nuw nsw i64 %indvars.iv, 1
  %40 = load i32, ptr %21, align 8
  %41 = sext i32 %40 to i64
  %42 = icmp slt i64 %indvars.iv.next, %41
  br i1 %42, label %34, label %._crit_edge, !llvm.loop !81

43:                                               ; preds = %1
  %44 = landingpad { ptr, i32 }
          cleanup
  br label %58

45:                                               ; preds = %11
  %46 = landingpad { ptr, i32 }
          cleanup
  br label %58

47:                                               ; preds = %14
  %48 = landingpad { ptr, i32 }
          cleanup
  br label %58

49:                                               ; preds = %17
  %50 = landingpad { ptr, i32 }
          cleanup
  br label %58

51:                                               ; preds = %20
  %52 = landingpad { ptr, i32 }
          cleanup
  br label %58

53:                                               ; preds = %25
  %54 = landingpad { ptr, i32 }
          cleanup
  br label %58

._crit_edge:                                      ; preds = %34, %29
  call void @_ZN2cv3Mat6createEiii(ptr noundef nonnull align 8 dereferenceable(96) %0, i32 noundef 1, i32 noundef 1, i32 noundef 3)
  %55 = getelementptr inbounds i8, ptr %0, i64 96
  call void @_ZN2cv3Mat6createEiii(ptr noundef nonnull align 8 dereferenceable(96) %55, i32 noundef 1, i32 noundef 1, i32 noundef 3)
  %56 = getelementptr inbounds i8, ptr %0, i64 192
  call void @_ZN2cv3Mat6createEiii(ptr noundef nonnull align 8 dereferenceable(96) %56, i32 noundef 1, i32 noundef 1, i32 noundef 1)
  %57 = getelementptr inbounds i8, ptr %0, i64 504
  call void @llvm.memset.p0.i64(ptr noundef nonnull align 8 dereferenceable(64) %57, i8 0, i64 64, i1 false)
  ret void

58:                                               ; preds = %53, %51, %49, %47, %45, %43
  %.sink = phi ptr [ %7, %53 ], [ %6, %51 ], [ %5, %49 ], [ %4, %47 ], [ %3, %45 ], [ %2, %43 ]
  %.pn = phi { ptr, i32 } [ %54, %53 ], [ %52, %51 ], [ %50, %49 ], [ %48, %47 ], [ %46, %45 ], [ %44, %43 ]
  call void @_ZN2cv3MatD2Ev(ptr noundef nonnull align 8 dereferenceable(96) %.sink) #23
  resume { ptr, i32 } %.pn
}